ASxxxx Linker V03.00 + NoICE + sdld,  page 1.
Hexadecimal  [32-Bits]

Area                                    Addr        Size        Decimal Bytes (Attributes)
--------------------------------        ----        ----        ------- ----- ------------
.  .ABS.                            00000000    00000000 =           0. bytes (ABS,CON)

      Value  Global                              Global Defined In Module
      -----  --------------------------------   ------------------------
     00000000  .__.ABS.                           cv_memtovmemcpy_fast
     00000000  l__BSEG                         
     00000000  l__BSS                          
     00000000  l__CABS                         
     00000000  l__DABS                         
     00000000  l__HEADER                       
     00000000  l__HEAP                         
     00000000  l__HOME                         
     00000000  s__CABS                         
     00000000  s__DABS                         
     00000000  s__HEADER                       
     00000000  s__HEADER0                      
     00000000  s__HEADER1                      
     00000000  s__HEADER2                      
     00000001  l__GSFINAL                      
     00000002  l__INITIALIZED                  
     00000002  l__INITIALIZER                  
     00000003  l__HEADER0                      
     00000003  l__HEADER1                      
     00000003  l__HEADER2                      
     0000006E  l__GSINIT                       
     00000089  l__DATA                         
     00000100  s__CODE                         
     0000074B  l__CODE                         
     0000084B  s__INITIALIZER                  
     0000084D  s__GSINIT                       
     0000084D  s__HOME                         
     000008BB  s__GSFINAL                      
     0000C000  s__DATA                         
     0000C089  s__INITIALIZED                  
     0000C08B  s__BSEG                         
     0000C08B  s__BSS                          
     0000C08B  s__HEAP                         
ASxxxx Linker V03.00 + NoICE + sdld,  page 2.
Hexadecimal  [32-Bits]

Area                                    Addr        Size        Decimal Bytes (Attributes)
--------------------------------        ----        ----        ------- ----- ------------
_CODE                               00000100    0000074B =        1867. bytes (REL,CON)

      Value  Global                              Global Defined In Module
      -----  --------------------------------   ------------------------
     00000100  _cv_start                          crt0
     00000130  _move_cursor                       main
     00000321  _IMAGE                             main
     00000323  _SPRITES                           main
     00000325  _SPRITE_PATTERNS                   main
     00000327  _nmi                               main
     0000032D  _main                              main
     00000426  _sprite                            cursor_png_sprite
     00000446  _cv_set_vint_handler               cv_set_vint_handler
     0000045D  _cv_find_vint_frequency            cv_init
     000004A5  _cv_init                           cv_init
     000004D2  _cv_set_screen_mode                cv_set_screen_mode
     00000504  _cv_set_write_vram_address         cv_set_write_vram_address
     0000051F  _cv_set_color_table                cv_set_color_table
     00000534  _cvu_vmemset                       cvu_vmemset
     00000590  _cv_get_screen_active              cv_get_screen_active
     0000059F  _cv_set_sprite_magnification       cv_set_sprite_magnification
     000005B5  _cv_vint                           cv_vint
     000005CE  _cvu_get_sprite_x                  cvu_get_sprite_x
     000005E7  _cvu_get_sprite_y                  cvu_get_sprite_y
     000005F7  _cv_set_sprite_pattern_table       cv_set_sprite_pattern_table
     0000060F  _cv_set_screen_active              cv_set_screen_active
     00000634  _cv_memtovmemcpy_slow              cv_memtovmemcpy_slow
     00000655  _cv_set_character_pattern_t        cv_set_character_pattern_tab
     0000066D  _cv_vmemset_fast                   cv_vmemset_fast
     00000686  _cvu_set_sprite_x                  cvu_set_sprite_x
     000006C2  _cvu_set_sprite_y                  cvu_set_sprite_y
     000006E5  ___sdcc_call_hl                    
     000006E6  _cv_set_sprite_big                 cv_set_sprite_big
     0000070B  _cv_set_image_table                cv_set_image_table
     00000722  _cv_set_attenuation                cv_set_attenuation
     0000074E  _cvu_memtovmemcpy                  cvu_memtovmemcpy
     000007AA  _cv_set_sprite_attribute_table     cv_set_sprite_attribute_tabl
     000007BF  ___sdcc_enter_ix                   
     000007C9  _cv_vdpout                         cv_vdpout
     000007E1  _cv_get_screen_mode                cv_get_screen_mode
     000007EF  _cv_get_controller_state           cv_get_controller_state
     00000813  _cv_vmemset_slow                   cv_vmemset_slow
     0000082D  _cv_memtovmemcpy_fast              cv_memtovmemcpy_fast
ASxxxx Linker V03.00 + NoICE + sdld,  page 3.
Hexadecimal  [32-Bits]

Area                                    Addr        Size        Decimal Bytes (Attributes)
--------------------------------        ----        ----        ------- ----- ------------
_HEADER0                            00000000    00000003 =           3. bytes (ABS,CON)

      Value  Global                              Global Defined In Module
      -----  --------------------------------   ------------------------
ASxxxx Linker V03.00 + NoICE + sdld,  page 4.
Hexadecimal  [32-Bits]

Area                                    Addr        Size        Decimal Bytes (Attributes)
--------------------------------        ----        ----        ------- ----- ------------
_HEADER1                            00000000    00000003 =           3. bytes (ABS,CON)

      Value  Global                              Global Defined In Module
      -----  --------------------------------   ------------------------
ASxxxx Linker V03.00 + NoICE + sdld,  page 5.
Hexadecimal  [32-Bits]

Area                                    Addr        Size        Decimal Bytes (Attributes)
--------------------------------        ----        ----        ------- ----- ------------
_HEADER2                            00000000    00000003 =           3. bytes (ABS,CON)

      Value  Global                              Global Defined In Module
      -----  --------------------------------   ------------------------
ASxxxx Linker V03.00 + NoICE + sdld,  page 6.
Hexadecimal  [32-Bits]

Area                                    Addr        Size        Decimal Bytes (Attributes)
--------------------------------        ----        ----        ------- ----- ------------
_INITIALIZER                        0000084B    00000002 =           2. bytes (REL,CON)

      Value  Global                              Global Defined In Module
      -----  --------------------------------   ------------------------
ASxxxx Linker V03.00 + NoICE + sdld,  page 7.
Hexadecimal  [32-Bits]

Area                                    Addr        Size        Decimal Bytes (Attributes)
--------------------------------        ----        ----        ------- ----- ------------
_GSINIT                             0000084D    0000006E =         110. bytes (REL,CON)

      Value  Global                              Global Defined In Module
      -----  --------------------------------   ------------------------
     0000084D  gsinit                             crt0

ASxxxx Linker V03.00 + NoICE + sdld,  page 8.
Hexadecimal  [32-Bits]

Area                                    Addr        Size        Decimal Bytes (Attributes)
--------------------------------        ----        ----        ------- ----- ------------
_GSFINAL                            000008BB    00000001 =           1. bytes (REL,CON)

      Value  Global                              Global Defined In Module
      -----  --------------------------------   ------------------------
ASxxxx Linker V03.00 + NoICE + sdld,  page 9.
Hexadecimal  [32-Bits]

Area                                    Addr        Size        Decimal Bytes (Attributes)
--------------------------------        ----        ----        ------- ----- ------------
_DATA                               0000C000    00000089 =         137. bytes (REL,CON)

      Value  Global                              Global Defined In Module
      -----  --------------------------------   ------------------------
     0000C000  _step                              main
     0000C001  _s                                 main
     0000C082  _cv_spint_handler                  cv_init
     0000C084  _cv_vdpstat                        cv_init
     0000C085  _cv_vint_indicator                 cv_init
     0000C086  _cv_vdpreg                         cv_init
     0000C088  _cv_machine_config                 cv_machine_config

ASxxxx Linker V03.00 + NoICE + sdld,  page 10.
Hexadecimal  [32-Bits]

Area                                    Addr        Size        Decimal Bytes (Attributes)
--------------------------------        ----        ----        ------- ----- ------------
_INITIALIZED                        0000C089    00000002 =           2. bytes (REL,CON)

      Value  Global                              Global Defined In Module
      -----  --------------------------------   ------------------------
     0000C089  _cv_vint_handler                   cv_init

ASxxxx Linker V03.00 + NoICE + sdld,  page 11.

Files Linked                              [ module(s) ]

../../bin/crt0-sms.rel                    [ crt0 ]
main-sms.rel                              [ main ]
cursor.png.sprite.rel                     [ cursor_png_sprite ]


Libraries Linked                          [ object file ]

../../bin/libcv-sms.lib                   [ cv_set_vint_handler-sms.rel ]
../../bin/libcv-sms.lib                   [ cv_init-sms.rel ]
../../bin/libcv-sms.lib                   [ cv_set_screen_mode-sms.rel ]
../../bin/libcv-sms.lib                   [ cv_set_write_vram_address-sms.re ]
../../bin/libcv-sms.lib                   [ cv_set_color_table-sms.rel ]
../../bin/libcvu-sms.lib                  [ cvu_vmemset-sms.rel ]
../../bin/libcv-sms.lib                   [ cv_get_screen_active-sms.rel ]
../../bin/libcv-sms.lib                   [ cv_set_sprite_magnification-sms. ]
../../bin/libcv-sms.lib                   [ cv_vint-sms.rel ]
../../bin/libcvu-sms.lib                  [ cvu_get_sprite_x.rel ]
../../bin/libcvu-sms.lib                  [ cvu_get_sprite_y.rel ]
../../bin/libcv-sms.lib                   [ cv_set_sprite_pattern_table-sms. ]
../../bin/libcv-sms.lib                   [ cv_set_screen_active-sms.rel ]
../../bin/libcv-sms.lib                   [ cv_memtovmemcpy_slow-sms.rel ]
../../bin/libcv-sms.lib                   [ cv_set_character_pattern_table-s ]
../../bin/libcv-sms.lib                   [ cv_vmemset_fast-sms.rel ]
../../bin/libcvu-sms.lib                  [ cvu_set_sprite_x.rel ]
../../bin/libcvu-sms.lib                  [ cvu_set_sprite_y.rel ]
/usr/local/bin/../share/sdcc/lib/z80/z80.lib
                                          [ __sdcc_call_hl.rel ]
../../bin/libcv-sms.lib                   [ cv_set_sprite_big-sms.rel ]
../../bin/libcv-sms.lib                   [ cv_set_image_table-sms.rel ]
../../bin/libcv-sms.lib                   [ cv_set_attenuation-sms.rel ]
../../bin/libcvu-sms.lib                  [ cvu_memtovmemcpy-sms.rel ]
../../bin/libcv-sms.lib                   [ cv_set_sprite_attribute_table-sm ]
/usr/local/bin/../share/sdcc/lib/z80/z80.lib
                                          [ crtenter.rel ]
../../bin/libcv-sms.lib                   [ cv_vdpout-sms.rel ]
../../bin/libcv-sms.lib                   [ cv_get_screen_mode-sms.rel ]
../../bin/libcv-sms.lib                   [ cv_get_controller_state-sms.rel ]
../../bin/libcv-sms.lib                   [ cv_vmemset_slow-sms.rel ]
../../bin/libcv-sms.lib                   [ cv_machine_config-sms.rel ]
../../bin/libcv-sms.lib                   [ cv_memtovmemcpy_fast-sms.rel ]

ASxxxx Linker V03.00 + NoICE + sdld,  page 12.

User Base Address Definitions

_CODE = 0x0100
_DATA = 0xc000

